; Function Attrs: mustprogress nounwind willreturn uwtable
define void @Gia_ManIncrSimStop(ptr noundef captures(none) initializes((812, 820), (896, 900), (904, 908)) %0) local_unnamed_addr #14 {
  %2 = getelementptr inbounds nuw i8, ptr %0, i64 896
  store i32 0, ptr %2, align 8, !tbaa !155
  %3 = getelementptr inbounds nuw i8, ptr %0, i64 812
  store i32 0, ptr %3, align 4, !tbaa !112
  %4 = getelementptr inbounds nuw i8, ptr %0, i64 816
  store i32 0, ptr %4, align 8, !tbaa !114
  %5 = getelementptr inbounds nuw i8, ptr %0, i64 904
  store i32 1, ptr %5, align 8, !tbaa !156
  %6 = getelementptr inbounds nuw i8, ptr %0, i64 912
  %7 = load ptr, ptr %6, align 8, !tbaa !58
  %8 = icmp eq ptr %7, null
  br i1 %8, label %Vec_IntFreeP.exit, label %9

9:                                                ; preds = %1
  %10 = getelementptr inbounds nuw i8, ptr %7, i64 8
  %11 = load ptr, ptr %10, align 8, !tbaa !36
  %.not.i = icmp eq ptr %11, null
  br i1 %.not.i, label %14, label %.thread.i

.thread.i:                                        ; preds = %9
  tail call void @free(ptr noundef nonnull %11) #26
  %12 = load ptr, ptr %6, align 8, !tbaa !58
  %13 = getelementptr inbounds nuw i8, ptr %12, i64 8
  store ptr null, ptr %13, align 8, !tbaa !36
  br label %14

14:                                               ; preds = %.thread.i, %9
  %15 = phi ptr [ %12, %.thread.i ], [ %7, %9 ]
  tail call void @free(ptr noundef nonnull %15) #26
  store ptr null, ptr %6, align 8, !tbaa !58
  br label %Vec_IntFreeP.exit

Vec_IntFreeP.exit:                                ; preds = %1, %14
  %16 = getelementptr inbounds nuw i8, ptr %0, i64 832
  %17 = load ptr, ptr %16, align 8, !tbaa !157
  %18 = icmp eq ptr %17, null
  br i1 %18, label %Vec_WrdFreeP.exit, label %19

19:                                               ; preds = %Vec_IntFreeP.exit
  %20 = getelementptr inbounds nuw i8, ptr %17, i64 8
  %21 = load ptr, ptr %20, align 8, !tbaa !119
  %.not.i6 = icmp eq ptr %21, null
  br i1 %.not.i6, label %24, label %.thread.i7

.thread.i7:                                       ; preds = %19
  tail call void @free(ptr noundef nonnull %21) #26
  %22 = load ptr, ptr %16, align 8, !tbaa !157
  %23 = getelementptr inbounds nuw i8, ptr %22, i64 8
  store ptr null, ptr %23, align 8, !tbaa !119
  br label %24

24:                                               ; preds = %.thread.i7, %19
  %25 = phi ptr [ %22, %.thread.i7 ], [ %17, %19 ]
  tail call void @free(ptr noundef nonnull %25) #26
  store ptr null, ptr %16, align 8, !tbaa !157
  br label %Vec_WrdFreeP.exit

Vec_WrdFreeP.exit:                                ; preds = %Vec_IntFreeP.exit, %24
  ret void
}